; Function Attrs: inlinehint nofree nosync nounwind memory(inaccessiblemem: write) uwtable
define internal fastcc noundef i64 @Abc_Tt6Isop(i64 noundef %0, i64 noundef %1, i32 noundef %2) unnamed_addr #11 {
  %4 = icmp eq i64 %0, 0
  br i1 %4, label %tailrecurse._crit_edge, label %.lr.ph

.lr.ph:                                           ; preds = %3, %tailrecurse
  %.tr37 = phi i32 [ %.0.lcssa, %tailrecurse ], [ %2, %3 ]
  %.tr26 = phi i64 [ %48, %tailrecurse ], [ %1, %3 ]
  %.tr5 = phi i64 [ %47, %tailrecurse ], [ %0, %3 ]
  %5 = icmp ne i64 %.tr26, -1
  tail call void @llvm.assume(i1 %5)
  %6 = zext i32 %.tr37 to i64
  %smin = tail call i32 @llvm.smin.i32(i32 %.tr37, i32 0)
  %7 = add i32 %smin, -1
  br label %8

8:                                                ; preds = %20, %.lr.ph
  %indvars.iv = phi i64 [ %indvars.iv.next, %20 ], [ %6, %.lr.ph ]
  %indvars.iv.next = add nsw i64 %indvars.iv, -1
  %indvars = trunc i64 %indvars.iv.next to i32
  %9 = trunc nuw i64 %indvars.iv to i32
  %10 = icmp sgt i32 %9, 0
  br i1 %10, label %11, label %.tailrecurse_crit_edge

.tailrecurse_crit_edge:                           ; preds = %8
  %.pre = shl nuw nsw i32 1, %7
  %.pre9 = zext nneg i32 %.pre to i64
  br label %tailrecurse

11:                                               ; preds = %8
  %12 = shl nuw i32 1, %indvars
  %13 = zext nneg i32 %12 to i64
  %14 = lshr i64 %.tr5, %13
  %15 = and i64 %indvars.iv.next, 4294967295
  %16 = getelementptr inbounds nuw [6 x i64], ptr @s_Truths6Neg, i64 0, i64 %15
  %17 = load i64, ptr %16, align 8, !tbaa !10
  %18 = xor i64 %14, %.tr5
  %19 = and i64 %17, %18
  %.not1 = icmp eq i64 %19, 0
  br i1 %.not1, label %20, label %tailrecurse

20:                                               ; preds = %11
  %21 = lshr i64 %.tr26, %13
  %22 = xor i64 %21, %.tr26
  %23 = and i64 %17, %22
  %.not = icmp eq i64 %23, 0
  br i1 %.not, label %8, label %tailrecurse, !llvm.loop !70

tailrecurse:                                      ; preds = %11, %20, %.tailrecurse_crit_edge
  %.pre-phi10 = phi i64 [ %.pre9, %.tailrecurse_crit_edge ], [ %13, %20 ], [ %13, %11 ]
  %.0.lcssa = phi i32 [ %7, %.tailrecurse_crit_edge ], [ %indvars, %20 ], [ %indvars, %11 ]
  %24 = sext i32 %.0.lcssa to i64
  %25 = getelementptr inbounds [6 x i64], ptr @s_Truths6Neg, i64 0, i64 %24
  %26 = load i64, ptr %25, align 8, !tbaa !10
  %27 = and i64 %26, %.tr5
  %28 = shl i64 %27, %.pre-phi10
  %29 = or i64 %28, %27
  %30 = getelementptr inbounds [6 x i64], ptr @s_Truths6, i64 0, i64 %24
  %31 = load i64, ptr %30, align 8, !tbaa !10
  %32 = and i64 %31, %.tr5
  %33 = lshr i64 %32, %.pre-phi10
  %34 = or i64 %33, %32
  %35 = and i64 %26, %.tr26
  %36 = shl i64 %35, %.pre-phi10
  %37 = or i64 %36, %35
  %38 = and i64 %31, %.tr26
  %39 = lshr i64 %38, %.pre-phi10
  %40 = or i64 %39, %38
  %41 = xor i64 %40, -1
  %42 = and i64 %29, %41
  %43 = tail call fastcc i64 @Abc_Tt6Isop(i64 noundef %42, i64 noundef %37, i32 noundef %.0.lcssa)
  %44 = xor i64 %37, -1
  %45 = and i64 %34, %44
  %46 = tail call fastcc i64 @Abc_Tt6Isop(i64 noundef %45, i64 noundef %40, i32 noundef %.0.lcssa)
  %47 = or i64 %34, %29
  %48 = and i64 %40, %37
  %49 = icmp eq i64 %47, 0
  br i1 %49, label %tailrecurse._crit_edge, label %.lr.ph

tailrecurse._crit_edge:                           ; preds = %tailrecurse, %3
  ret i64 0
}